; ModuleID = '32/1711.c'
source_filename = "32/1711.c"
target datalayout = "e-m:e-p270:32:32-p271:32:32-p272:64:64-i64:64-f80:128-n8:16:32:64-S128"
target triple = "x86_64-pc-linux-gnu"

@.str = private unnamed_addr constant [3 x i8] c"%d\00", align 1
@.str.1 = private unnamed_addr constant [3 x i8] c"%c\00", align 1
@.str.2 = private unnamed_addr constant [2 x i8] c"\0A\00", align 1

; Function Attrs: noinline nounwind uwtable
define dso_local void @main() #0 {
  %1 = alloca [100 x i8], align 16
  %2 = alloca [100 x i8], align 16
  %3 = alloca i32, align 4
  %4 = alloca i32, align 4
  %5 = alloca i32, align 4
  %6 = alloca i32, align 4
  %7 = alloca i32, align 4
  %8 = alloca i32, align 4
  %9 = alloca i32, align 4
  %10 = bitcast [100 x i8]* %1 to i8*
  call void @llvm.memset.p0i8.i64(i8* align 16 %10, i8 0, i64 100, i1 false)
  %11 = bitcast [100 x i8]* %2 to i8*
  call void @llvm.memset.p0i8.i64(i8* align 16 %11, i8 0, i64 100, i1 false)
  %12 = call i32 (i8*, ...) @__isoc99_scanf(i8* getelementptr inbounds ([3 x i8], [3 x i8]* @.str, i64 0, i64 0), i32* %3)
  store i32 0, i32* %4, align 4
  br label %13

13:                                               ; preds = %152, %0
  %14 = load i32, i32* %4, align 4
  %15 = load i32, i32* %3, align 4
  %16 = icmp slt i32 %14, %15
  br i1 %16, label %17, label %155

17:                                               ; preds = %13
  %18 = getelementptr inbounds [100 x i8], [100 x i8]* %1, i64 0, i64 0
  %19 = call i32 (i8*, ...) bitcast (i32 (...)* @gets to i32 (i8*, ...)*)(i8* %18)
  %20 = getelementptr inbounds [100 x i8], [100 x i8]* %1, i64 0, i64 0
  %21 = call i32 (i8*, ...) bitcast (i32 (...)* @gets to i32 (i8*, ...)*)(i8* %20)
  %22 = getelementptr inbounds [100 x i8], [100 x i8]* %2, i64 0, i64 0
  %23 = call i32 (i8*, ...) bitcast (i32 (...)* @gets to i32 (i8*, ...)*)(i8* %22)
  %24 = getelementptr inbounds [100 x i8], [100 x i8]* %1, i64 0, i64 0
  %25 = call i64 @strlen(i8* %24) #4
  %26 = trunc i64 %25 to i32
  store i32 %26, i32* %5, align 4
  %27 = getelementptr inbounds [100 x i8], [100 x i8]* %2, i64 0, i64 0
  %28 = call i64 @strlen(i8* %27) #4
  %29 = trunc i64 %28 to i32
  store i32 %29, i32* %6, align 4
  %30 = load i32, i32* %5, align 4
  %31 = sub nsw i32 %30, 1
  store i32 %31, i32* %7, align 4
  %32 = load i32, i32* %6, align 4
  %33 = sub nsw i32 %32, 1
  store i32 %33, i32* %8, align 4
  br label %34

34:                                               ; preds = %116, %17
  %35 = load i32, i32* %8, align 4
  %36 = icmp sge i32 %35, 0
  br i1 %36, label %37, label %121

37:                                               ; preds = %34
  %38 = load i32, i32* %7, align 4
  %39 = sext i32 %38 to i64
  %40 = getelementptr inbounds [100 x i8], [100 x i8]* %1, i64 0, i64 %39
  %41 = load i8, i8* %40, align 1
  %42 = sext i8 %41 to i32
  %43 = load i32, i32* %8, align 4
  %44 = sext i32 %43 to i64
  %45 = getelementptr inbounds [100 x i8], [100 x i8]* %2, i64 0, i64 %44
  %46 = load i8, i8* %45, align 1
  %47 = sext i8 %46 to i32
  %48 = icmp sge i32 %42, %47
  br i1 %48, label %49, label %66

49:                                               ; preds = %37
  %50 = load i32, i32* %7, align 4
  %51 = sext i32 %50 to i64
  %52 = getelementptr inbounds [100 x i8], [100 x i8]* %1, i64 0, i64 %51
  %53 = load i8, i8* %52, align 1
  %54 = sext i8 %53 to i32
  %55 = load i32, i32* %8, align 4
  %56 = sext i32 %55 to i64
  %57 = getelementptr inbounds [100 x i8], [100 x i8]* %2, i64 0, i64 %56
  %58 = load i8, i8* %57, align 1
  %59 = sext i8 %58 to i32
  %60 = sub nsw i32 %54, %59
  %61 = add nsw i32 %60, 48
  %62 = trunc i32 %61 to i8
  %63 = load i32, i32* %7, align 4
  %64 = sext i32 %63 to i64
  %65 = getelementptr inbounds [100 x i8], [100 x i8]* %1, i64 0, i64 %64
  store i8 %62, i8* %65, align 1
  br label %115

66:                                               ; preds = %37
  %67 = load i32, i32* %7, align 4
  %68 = sext i32 %67 to i64
  %69 = getelementptr inbounds [100 x i8], [100 x i8]* %1, i64 0, i64 %68
  %70 = load i8, i8* %69, align 1
  %71 = sext i8 %70 to i32
  %72 = load i32, i32* %8, align 4
  %73 = sext i32 %72 to i64
  %74 = getelementptr inbounds [100 x i8], [100 x i8]* %2, i64 0, i64 %73
  %75 = load i8, i8* %74, align 1
  %76 = sext i8 %75 to i32
  %77 = sub nsw i32 %71, %76
  %78 = add nsw i32 %77, 58
  %79 = trunc i32 %78 to i8
  %80 = load i32, i32* %7, align 4
  %81 = sext i32 %80 to i64
  %82 = getelementptr inbounds [100 x i8], [100 x i8]* %1, i64 0, i64 %81
  store i8 %79, i8* %82, align 1
  %83 = load i32, i32* %7, align 4
  store i32 %83, i32* %9, align 4
  br label %84

84:                                               ; preds = %111, %66
  %85 = load i32, i32* %9, align 4
  %86 = sub nsw i32 %85, 1
  %87 = sext i32 %86 to i64
  %88 = getelementptr inbounds [100 x i8], [100 x i8]* %1, i64 0, i64 %87
  %89 = load i8, i8* %88, align 1
  %90 = sext i8 %89 to i32
  %91 = icmp ne i32 %90, 48
  br i1 %91, label %92, label %99

92:                                               ; preds = %84
  %93 = load i32, i32* %9, align 4
  %94 = sub nsw i32 %93, 1
  %95 = sext i32 %94 to i64
  %96 = getelementptr inbounds [100 x i8], [100 x i8]* %1, i64 0, i64 %95
  %97 = load i8, i8* %96, align 1
  %98 = add i8 %97, -1
  store i8 %98, i8* %96, align 1
  br label %114

99:                                               ; preds = %84
  %100 = load i32, i32* %9, align 4
  %101 = sub nsw i32 %100, 1
  %102 = sext i32 %101 to i64
  %103 = getelementptr inbounds [100 x i8], [100 x i8]* %1, i64 0, i64 %102
  %104 = load i8, i8* %103, align 1
  %105 = sext i8 %104 to i32
  %106 = add nsw i32 %105, 9
  %107 = trunc i32 %106 to i8
  store i8 %107, i8* %103, align 1
  %108 = load i32, i32* %9, align 4
  %109 = add nsw i32 %108, -1
  store i32 %109, i32* %9, align 4
  br label %110

110:                                              ; preds = %99
  br label %111

111:                                              ; preds = %110
  %112 = load i32, i32* %9, align 4
  %113 = icmp sge i32 %112, 0
  br i1 %113, label %84, label %114

114:                                              ; preds = %111, %92
  br label %115

115:                                              ; preds = %114, %49
  br label %116

116:                                              ; preds = %115
  %117 = load i32, i32* %7, align 4
  %118 = add nsw i32 %117, -1
  store i32 %118, i32* %7, align 4
  %119 = load i32, i32* %8, align 4
  %120 = add nsw i32 %119, -1
  store i32 %120, i32* %8, align 4
  br label %34

121:                                              ; preds = %34
  store i32 0, i32* %7, align 4
  br label %122

122:                                              ; preds = %133, %121
  %123 = load i32, i32* %7, align 4
  %124 = load i32, i32* %5, align 4
  %125 = icmp slt i32 %123, %124
  br i1 %125, label %126, label %136

126:                                              ; preds = %122
  %127 = load i32, i32* %7, align 4
  %128 = sext i32 %127 to i64
  %129 = getelementptr inbounds [100 x i8], [100 x i8]* %1, i64 0, i64 %128
  %130 = load i8, i8* %129, align 1
  %131 = sext i8 %130 to i32
  %132 = call i32 (i8*, ...) @printf(i8* getelementptr inbounds ([3 x i8], [3 x i8]* @.str.1, i64 0, i64 0), i32 %131)
  br label %133

133:                                              ; preds = %126
  %134 = load i32, i32* %7, align 4
  %135 = add nsw i32 %134, 1
  store i32 %135, i32* %7, align 4
  br label %122

136:                                              ; preds = %122
  %137 = call i32 (i8*, ...) @printf(i8* getelementptr inbounds ([2 x i8], [2 x i8]* @.str.2, i64 0, i64 0))
  store i32 0, i32* %7, align 4
  br label %138

138:                                              ; preds = %148, %136
  %139 = load i32, i32* %7, align 4
  %140 = icmp slt i32 %139, 100
  br i1 %140, label %141, label %151

141:                                              ; preds = %138
  %142 = load i32, i32* %7, align 4
  %143 = sext i32 %142 to i64
  %144 = getelementptr inbounds [100 x i8], [100 x i8]* %1, i64 0, i64 %143
  store i8 0, i8* %144, align 1
  %145 = load i32, i32* %7, align 4
  %146 = sext i32 %145 to i64
  %147 = getelementptr inbounds [100 x i8], [100 x i8]* %2, i64 0, i64 %146
  store i8 0, i8* %147, align 1
  br label %148

148:                                              ; preds = %141
  %149 = load i32, i32* %7, align 4
  %150 = add nsw i32 %149, 1
  store i32 %150, i32* %7, align 4
  br label %138

151:                                              ; preds = %138
  br label %152

152:                                              ; preds = %151
  %153 = load i32, i32* %4, align 4
  %154 = add nsw i32 %153, 1
  store i32 %154, i32* %4, align 4
  br label %13

155:                                              ; preds = %13
  ret void
}

; Function Attrs: argmemonly nounwind willreturn
declare void @llvm.memset.p0i8.i64(i8* nocapture writeonly, i8, i64, i1 immarg) #1

declare dso_local i32 @__isoc99_scanf(i8*, ...) #2

declare dso_local i32 @gets(...) #2

; Function Attrs: nounwind readonly
declare dso_local i64 @strlen(i8*) #3

declare dso_local i32 @printf(i8*, ...) #2


!llvm.module.flags = !{!0}
!llvm.ident = !{!1}

!0 = !{i32 1, !"wchar_size", i32 4}
!1 = !{!"clang version 10.0.0-4ubuntu1 "}
