; ModuleID = 'source-C-CXX/31/1711.c'
source_filename = "source-C-CXX/31/1711.c"
target datalayout = "e-m:e-p270:32:32-p271:32:32-p272:64:64-i64:64-f80:128-n8:16:32:64-S128"
target triple = "x86_64-pc-linux-gnu"

@.str = private unnamed_addr constant [3 x i8] c"%d\00", align 1

; Function Attrs: nounwind sspstrong uwtable
define dso_local void @main() local_unnamed_addr #0 {
  %1 = alloca [100 x i8], align 16
  %2 = getelementptr inbounds [100 x i8], [100 x i8]* %1, i64 0, i64 0
  %3 = alloca [100 x i8], align 16
  %4 = getelementptr inbounds [100 x i8], [100 x i8]* %3, i64 0, i64 0
  %5 = alloca i32, align 4
  %6 = getelementptr inbounds [100 x i8], [100 x i8]* %1, i64 0, i64 0
  call void @llvm.lifetime.start.p0i8(i64 100, i8* nonnull %6) #7
  call void @llvm.memset.p0i8.i64(i8* noundef nonnull align 16 dereferenceable(100) %6, i8 0, i64 100, i1 false)
  %7 = getelementptr inbounds [100 x i8], [100 x i8]* %3, i64 0, i64 0
  call void @llvm.lifetime.start.p0i8(i64 100, i8* nonnull %7) #7
  call void @llvm.memset.p0i8.i64(i8* noundef nonnull align 16 dereferenceable(100) %7, i8 0, i64 100, i1 false)
  %8 = bitcast i32* %5 to i8*
  call void @llvm.lifetime.start.p0i8(i64 4, i8* nonnull %8) #7
  %9 = call i32 (i8*, ...) @__isoc99_scanf(i8* getelementptr inbounds ([3 x i8], [3 x i8]* @.str, i64 0, i64 0), i32* nonnull %5)
  %10 = load i32, i32* %5, align 4, !tbaa !5
  %11 = icmp sgt i32 %10, 0
  br i1 %11, label %12, label %76

12:                                               ; preds = %0, %71
  %13 = phi i32 [ %73, %71 ], [ 0, %0 ]
  %14 = call i32 (i8*, ...) bitcast (i32 (...)* @gets to i32 (i8*, ...)*)(i8* nonnull %6) #7
  %15 = call i32 (i8*, ...) bitcast (i32 (...)* @gets to i32 (i8*, ...)*)(i8* nonnull %6) #7
  %16 = call i32 (i8*, ...) bitcast (i32 (...)* @gets to i32 (i8*, ...)*)(i8* nonnull %7) #7
  %17 = call i64 @strlen(i8* noundef nonnull %6) #8
  %18 = trunc i64 %17 to i32
  %19 = call i64 @strlen(i8* noundef nonnull %7) #8
  %20 = trunc i64 %19 to i32
  %21 = icmp sgt i32 %20, 0
  br i1 %21, label %22, label %26

22:                                               ; preds = %12
  %23 = shl i64 %17, 32
  %24 = ashr exact i64 %23, 32
  %25 = and i64 %19, 4294967295
  br label %30

26:                                               ; preds = %60, %12
  %27 = icmp sgt i32 %18, 0
  br i1 %27, label %28, label %71

28:                                               ; preds = %26
  %29 = and i64 %17, 4294967295
  br label %63

30:                                               ; preds = %22, %60
  %31 = phi i64 [ %25, %22 ], [ %62, %60 ]
  %32 = phi i64 [ %24, %22 ], [ %37, %60 ]
  %33 = phi i64 [ %24, %22 ], [ %35, %60 ]
  %34 = phi i32 [ %20, %22 ], [ %36, %60 ]
  %35 = add nsw i64 %33, -1
  %36 = add nsw i32 %34, -1
  %37 = add nsw i64 %32, -1
  %38 = getelementptr inbounds [100 x i8], [100 x i8]* %1, i64 0, i64 %37
  %39 = load i8, i8* %38, align 1, !tbaa !9
  %40 = zext i32 %36 to i64
  %41 = getelementptr inbounds [100 x i8], [100 x i8]* %3, i64 0, i64 %40
  %42 = load i8, i8* %41, align 1, !tbaa !9
  %43 = icmp slt i8 %39, %42
  br i1 %43, label %47, label %44

44:                                               ; preds = %30
  %45 = add i8 %39, 48
  %46 = sub i8 %45, %42
  store i8 %46, i8* %38, align 1, !tbaa !9
  br label %60

47:                                               ; preds = %30
  %48 = add i8 %39, 58
  %49 = sub i8 %48, %42
  store i8 %49, i8* %38, align 1, !tbaa !9
  br label %50

50:                                               ; preds = %58, %47
  %51 = phi i64 [ %52, %58 ], [ %35, %47 ]
  %52 = add nsw i64 %51, -1
  %53 = getelementptr inbounds [100 x i8], [100 x i8]* %1, i64 0, i64 %52
  %54 = load i8, i8* %53, align 1, !tbaa !9
  %55 = icmp eq i8 %54, 48
  br i1 %55, label %58, label %56

56:                                               ; preds = %50
  %57 = add i8 %54, -1
  store i8 %57, i8* %53, align 1, !tbaa !9
  br label %60

58:                                               ; preds = %50
  store i8 57, i8* %53, align 1, !tbaa !9
  %59 = icmp sgt i64 %51, 0
  br i1 %59, label %50, label %60, !llvm.loop !10

60:                                               ; preds = %58, %44, %56
  %61 = icmp sgt i64 %31, 1
  %62 = add nsw i64 %31, -1
  br i1 %61, label %30, label %26, !llvm.loop !12

63:                                               ; preds = %28, %63
  %64 = phi i64 [ 0, %28 ], [ %69, %63 ]
  %65 = getelementptr inbounds [100 x i8], [100 x i8]* %1, i64 0, i64 %64
  %66 = load i8, i8* %65, align 1, !tbaa !9
  %67 = sext i8 %66 to i32
  %68 = call i32 @putchar(i32 %67)
  %69 = add nuw nsw i64 %64, 1
  %70 = icmp eq i64 %69, %29
  br i1 %70, label %71, label %63, !llvm.loop !13

71:                                               ; preds = %63, %26
  %72 = call i32 @putchar(i32 10)
  call void @llvm.memset.p0i8.i64(i8* noundef nonnull align 16 dereferenceable(100) %2, i8 0, i64 100, i1 false)
  call void @llvm.memset.p0i8.i64(i8* noundef nonnull align 16 dereferenceable(100) %4, i8 0, i64 100, i1 false)
  %73 = add nuw nsw i32 %13, 1
  %74 = load i32, i32* %5, align 4, !tbaa !5
  %75 = icmp slt i32 %73, %74
  br i1 %75, label %12, label %76, !llvm.loop !14

76:                                               ; preds = %71, %0
  call void @llvm.lifetime.end.p0i8(i64 4, i8* nonnull %8) #7
  call void @llvm.lifetime.end.p0i8(i64 100, i8* nonnull %7) #7
  call void @llvm.lifetime.end.p0i8(i64 100, i8* nonnull %6) #7
  ret void
}

; Function Attrs: argmemonly mustprogress nofree nosync nounwind willreturn
declare void @llvm.lifetime.start.p0i8(i64 immarg, i8* nocapture) #1

; Function Attrs: argmemonly mustprogress nofree nounwind willreturn writeonly
declare void @llvm.memset.p0i8.i64(i8* nocapture writeonly, i8, i64, i1 immarg) #2

; Function Attrs: nofree nounwind
declare noundef i32 @__isoc99_scanf(i8* nocapture noundef readonly, ...) local_unnamed_addr #3

declare i32 @gets(...) local_unnamed_addr #4

; Function Attrs: argmemonly mustprogress nofree nounwind readonly willreturn
declare i64 @strlen(i8* nocapture) local_unnamed_addr #5

; Function Attrs: argmemonly mustprogress nofree nosync nounwind willreturn
declare void @llvm.lifetime.end.p0i8(i64 immarg, i8* nocapture) #1

; Function Attrs: nofree nounwind
declare noundef i32 @putchar(i32 noundef) local_unnamed_addr #6


!llvm.module.flags = !{!0, !1, !2, !3}
!llvm.ident = !{!4}

!0 = !{i32 1, !"wchar_size", i32 4}
!1 = !{i32 7, !"PIC Level", i32 2}
!2 = !{i32 7, !"PIE Level", i32 2}
!3 = !{i32 7, !"uwtable", i32 1}
!4 = !{!"clang version 13.0.0"}
!5 = !{!6, !6, i64 0}
!6 = !{!"int", !7, i64 0}
!7 = !{!"omnipotent char", !8, i64 0}
!8 = !{!"Simple C/C++ TBAA"}
!9 = !{!7, !7, i64 0}
!10 = distinct !{!10, !11}
!11 = !{!"llvm.loop.mustprogress"}
!12 = distinct !{!12, !11}
!13 = distinct !{!13, !11}
!14 = distinct !{!14, !11}
